; Function Attrs: mustprogress nofree norecurse nosync nounwind willreturn memory(read, inaccessiblemem: none) uwtable
define noundef nonnull ptr @_ZNK4pugi13xml_attribute4nameEv(ptr nocapture noundef nonnull readonly align 8 dereferenceable(8) %this) local_unnamed_addr #9 align 2 {
entry:
  %0 = load ptr, ptr %this, align 8
  %tobool.not = icmp eq ptr %0, null
  br i1 %tobool.not, label %return, label %if.end

if.end:                                           ; preds = %entry
  %name3 = getelementptr inbounds i8, ptr %0, i64 8
  %1 = load ptr, ptr %name3, align 8
  %tobool4.not = icmp eq ptr %1, null
  %cond = select i1 %tobool4.not, ptr @.str, ptr %1
  br label %return

return:                                           ; preds = %entry, %if.end
  %retval.0 = phi ptr [ %cond, %if.end ], [ @.str, %entry ]
  ret ptr %retval.0
}